target datalayout = "e-m:e-p270:32:32-p271:32:32-p272:64:64-i64:64-i128:128-f80:128-n8:16:32:64-S128"
target triple = "x86_64-pc-linux-gnu"

%"class.llvm::MCObjectFileInfo" = type { ptr, i8, i8, i8, i32, i32, ptr, ptr, ptr, ptr, ptr, ptr, ptr, ptr, ptr, ptr, ptr, ptr, ptr, ptr, ptr, ptr, ptr, ptr, ptr, ptr, ptr, ptr, ptr, ptr, ptr, ptr, ptr, ptr, ptr, ptr, ptr, ptr, ptr, ptr, ptr, ptr, ptr, ptr, ptr, ptr, ptr, ptr, ptr, ptr, ptr, ptr, ptr, ptr, ptr, ptr, ptr, ptr, ptr, ptr, ptr, ptr, ptr, ptr, ptr, ptr, ptr, ptr, ptr, ptr, ptr, ptr, ptr, ptr, ptr, ptr, ptr, ptr, ptr, ptr, ptr, ptr, ptr, ptr, ptr, ptr, ptr, ptr, ptr, ptr, ptr, ptr, ptr, ptr, ptr, ptr, ptr, ptr, ptr, ptr, ptr, ptr, ptr, ptr, %"struct.std::array", i8, ptr }
%"struct.std::array" = type { [11 x ptr] }
%"class.llvm::TargetLoweringObjectFile" = type { %"class.llvm::MCObjectFileInfo", ptr, i8, i8, i8, i8, i32, i32, i32, i32, ptr, ptr, ptr }
%"class.llvm::SmallPtrSet" = type { %"class.llvm::SmallPtrSetImpl.base", [2 x ptr] }
%"class.llvm::SmallPtrSetImpl.base" = type { %"class.llvm::SmallPtrSetImplBase.base" }
%"class.llvm::SmallPtrSetImplBase.base" = type <{ ptr, ptr, i32, i32, i32 }>
%"class.llvm::RISCVELFTargetObjectFile" = type <{ %"class.llvm::TargetLoweringObjectFileELF.base", [6 x i8], ptr, ptr, ptr, ptr, ptr, ptr, ptr, i32, [4 x i8] }>
%"class.llvm::TargetLoweringObjectFileELF.base" = type <{ %"class.llvm::TargetLoweringObjectFile", i8, [3 x i8], i32, %"class.llvm::SmallPtrSet", i16 }>
%"class.llvm::TypeSize" = type { %"class.llvm::details::FixedOrScalableQuantity.base", [7 x i8] }
%"class.llvm::details::FixedOrScalableQuantity.base" = type <{ i64, i8 }>
%"class.llvm::Value" = type { i8, i8, i16, i32, ptr, ptr }
%"struct.llvm::Align" = type { i8 }
%"class.llvm::details::FixedOrScalableQuantity" = type <{ i64, i8, [7 x i8] }>

; Function Attrs: mustprogress nounwind uwtable
define linkonce_odr hidden void @_ZN4llvm7details23FixedOrScalableQuantityINS_8TypeSizeEmEC2Emb(ptr noundef nonnull align 8 dereferenceable(9) %0, i64 noundef %1, i1 noundef zeroext %2) unnamed_addr #0 comdat align 2 {
  %4 = alloca ptr, align 8
  %5 = alloca i64, align 8
  %6 = alloca i8, align 1
  store ptr %0, ptr %4, align 8
  store i64 %1, ptr %5, align 8
  %7 = zext i1 %2 to i8
  store i8 %7, ptr %6, align 1
  %8 = load ptr, ptr %4, align 8
  %9 = getelementptr inbounds nuw %"class.llvm::details::FixedOrScalableQuantity", ptr %8, i32 0, i32 0
  %10 = load i64, ptr %5, align 8
  store i64 %10, ptr %9, align 8
  %11 = getelementptr inbounds nuw %"class.llvm::details::FixedOrScalableQuantity", ptr %8, i32 0, i32 1
  %12 = load i8, ptr %6, align 1
  %13 = trunc i8 %12 to i1
  %14 = zext i1 %13 to i8
  store i8 %14, ptr %11, align 8
  ret void
}

; Function Attrs: mustprogress nounwind uwtable
define linkonce_odr hidden noundef i64 @_ZN4llvm15alignToPowerOf2ImimEET1_T_T0_(i64 noundef %0, i32 noundef %1) #0 comdat {
  %3 = alloca i64, align 8
  %4 = alloca i32, align 4
  %5 = alloca i64, align 8
  store i64 %0, ptr %3, align 8
  store i32 %1, ptr %4, align 4
  %6 = load i32, ptr %4, align 4
  %7 = sext i32 %6 to i64
  %8 = sub i64 0, %7
  store i64 %8, ptr %5, align 8
  %9 = load i64, ptr %3, align 8
  %10 = load i32, ptr %4, align 4
  %11 = sub nsw i32 %10, 1
  %12 = sext i32 %11 to i64
  %13 = add i64 %9, %12
  %14 = load i64, ptr %5, align 8
  %15 = and i64 %13, %14
  ret i64 %15
}

; Function Attrs: mustprogress nounwind uwtable
define linkonce_odr hidden void @_ZN4llvm8TypeSizeC2Emb(ptr noundef nonnull align 8 dereferenceable(9) %0, i64 noundef %1, i1 noundef zeroext %2) unnamed_addr #0 comdat align 2 {
  %4 = alloca ptr, align 8
  %5 = alloca i64, align 8
  %6 = alloca i8, align 1
  store ptr %0, ptr %4, align 8
  store i64 %1, ptr %5, align 8
  %7 = zext i1 %2 to i8
  store i8 %7, ptr %6, align 1
  %8 = load ptr, ptr %4, align 8
  %9 = load i64, ptr %5, align 8
  %10 = load i8, ptr %6, align 1
  %11 = trunc i8 %10 to i1
  call void @_ZN4llvm7details23FixedOrScalableQuantityINS_8TypeSizeEmEC2Emb(ptr noundef nonnull align 8 dereferenceable(9) %8, i64 noundef %9, i1 noundef zeroext %11)
  ret void
}

; Function Attrs: mustprogress nounwind uwtable
define linkonce_odr hidden noundef zeroext i1 @_ZNK4llvm7details23FixedOrScalableQuantityINS_8TypeSizeEmE10isScalableEv(ptr noundef nonnull align 8 dereferenceable(9) %0) #0 comdat align 2 {
  %2 = alloca ptr, align 8
  store ptr %0, ptr %2, align 8
  %3 = load ptr, ptr %2, align 8
  %4 = getelementptr inbounds nuw %"class.llvm::details::FixedOrScalableQuantity", ptr %3, i32 0, i32 1
  %5 = load i8, ptr %4, align 8
  %6 = trunc i8 %5 to i1
  ret i1 %6
}

; Function Attrs: mustprogress nounwind uwtable
define linkonce_odr hidden noundef i64 @_ZNK4llvm7details23FixedOrScalableQuantityINS_8TypeSizeEmE16getKnownMinValueEv(ptr noundef nonnull align 8 dereferenceable(9) %0) #0 comdat align 2 {
  %2 = alloca ptr, align 8
  store ptr %0, ptr %2, align 8
  %3 = load ptr, ptr %2, align 8
  %4 = getelementptr inbounds nuw %"class.llvm::details::FixedOrScalableQuantity", ptr %3, i32 0, i32 0
  %5 = load i64, ptr %4, align 8
  ret i64 %5
}

; Function Attrs: mustprogress nounwind uwtable
define linkonce_odr hidden { i64, i8 } @_ZNK4llvm10DataLayout22getTypeStoreSizeInBitsEPNS_4TypeE(ptr noundef nonnull align 8 dereferenceable(512) %0, ptr noundef %1) #0 comdat align 2 {
  %3 = alloca %"class.llvm::TypeSize", align 8
  %4 = alloca ptr, align 8
  %5 = alloca ptr, align 8
  %6 = alloca %"class.llvm::TypeSize", align 8
  %7 = alloca { i64, i8 }, align 8
  %8 = alloca i64, align 8
  store ptr %0, ptr %4, align 8
  store ptr %1, ptr %5, align 8
  %9 = load ptr, ptr %4, align 8
  %10 = load ptr, ptr %5, align 8
  %11 = call { i64, i8 } @_ZNK4llvm10DataLayout17getTypeSizeInBitsEPNS_4TypeE(ptr noundef nonnull align 8 dereferenceable(512) %9, ptr noundef %10)
  store { i64, i8 } %11, ptr %7, align 8
  call void @llvm.memcpy.p0.p0.i64(ptr align 8 %6, ptr align 8 %7, i64 9, i1 false)
  %12 = call noundef i64 @_ZNK4llvm7details23FixedOrScalableQuantityINS_8TypeSizeEmE16getKnownMinValueEv(ptr noundef nonnull align 8 dereferenceable(9) %6)
  %13 = call noundef i64 @_ZN4llvm15alignToPowerOf2ImimEET1_T_T0_(i64 noundef %12, i32 noundef 8)
  store i64 %13, ptr %8, align 8
  %14 = load i64, ptr %8, align 8
  %15 = call noundef zeroext i1 @_ZNK4llvm7details23FixedOrScalableQuantityINS_8TypeSizeEmE10isScalableEv(ptr noundef nonnull align 8 dereferenceable(9) %6)
  call void @_ZN4llvm8TypeSizeC2Emb(ptr noundef nonnull align 8 dereferenceable(9) %3, i64 noundef %14, i1 noundef zeroext %15)
  %16 = load { i64, i8 }, ptr %3, align 8
  ret { i64, i8 } %16
}

; Function Attrs: mustprogress nounwind uwtable
define linkonce_odr hidden { i64, i8 } @_ZN4llvm7alignToENS_8TypeSizeEm(i64 %0, i8 %1, i64 noundef %2) #0 comdat {
  %4 = alloca %"class.llvm::TypeSize", align 8
  %5 = alloca %"class.llvm::TypeSize", align 8
  %6 = alloca i64, align 8
  %7 = getelementptr inbounds nuw { i64, i8 }, ptr %5, i32 0, i32 0
  store i64 %0, ptr %7, align 8
  %8 = getelementptr inbounds nuw { i64, i8 }, ptr %5, i32 0, i32 1
  store i8 %1, ptr %8, align 8
  store i64 %2, ptr %6, align 8
  %9 = call noundef i64 @_ZNK4llvm7details23FixedOrScalableQuantityINS_8TypeSizeEmE16getKnownMinValueEv(ptr noundef nonnull align 8 dereferenceable(9) %5)
  %10 = load i64, ptr %6, align 8
  %11 = add i64 %9, %10
  %12 = sub i64 %11, 1
  %13 = load i64, ptr %6, align 8
  %14 = udiv i64 %12, %13
  %15 = load i64, ptr %6, align 8
  %16 = mul i64 %14, %15
  %17 = call noundef zeroext i1 @_ZNK4llvm7details23FixedOrScalableQuantityINS_8TypeSizeEmE10isScalableEv(ptr noundef nonnull align 8 dereferenceable(9) %5)
  call void @_ZN4llvm8TypeSizeC2Emb(ptr noundef nonnull align 8 dereferenceable(9) %4, i64 noundef %16, i1 noundef zeroext %17)
  %18 = load { i64, i8 }, ptr %4, align 8
  ret { i64, i8 } %18
}

; Function Attrs: mustprogress nounwind uwtable
define linkonce_odr hidden noundef i64 @_ZNK4llvm5Align5valueEv(ptr noundef nonnull align 1 dereferenceable(1) %0) #0 comdat align 2 {
  %2 = alloca ptr, align 8
  store ptr %0, ptr %2, align 8
  %3 = load ptr, ptr %2, align 8
  %4 = getelementptr inbounds nuw %"struct.llvm::Align", ptr %3, i32 0, i32 0
  %5 = load i8, ptr %4, align 1
  %6 = zext i8 %5 to i32
  %7 = zext i32 %6 to i64
  %8 = shl i64 1, %7
  ret i64 %8
}

; Function Attrs: mustprogress nounwind uwtable
define linkonce_odr hidden { i64, i8 } @_ZNK4llvm10DataLayout16getTypeStoreSizeEPNS_4TypeE(ptr noundef nonnull align 8 dereferenceable(512) %0, ptr noundef %1) #0 comdat align 2 {
  %3 = alloca %"class.llvm::TypeSize", align 8
  %4 = alloca ptr, align 8
  %5 = alloca ptr, align 8
  %6 = alloca %"class.llvm::TypeSize", align 8
  %7 = alloca { i64, i8 }, align 8
  store ptr %0, ptr %4, align 8
  store ptr %1, ptr %5, align 8
  %8 = load ptr, ptr %4, align 8
  %9 = load ptr, ptr %5, align 8
  %10 = call { i64, i8 } @_ZNK4llvm10DataLayout22getTypeStoreSizeInBitsEPNS_4TypeE(ptr noundef nonnull align 8 dereferenceable(512) %8, ptr noundef %9)
  store { i64, i8 } %10, ptr %7, align 8
  call void @llvm.memcpy.p0.p0.i64(ptr align 8 %6, ptr align 8 %7, i64 9, i1 false)
  %11 = call noundef i64 @_ZNK4llvm7details23FixedOrScalableQuantityINS_8TypeSizeEmE16getKnownMinValueEv(ptr noundef nonnull align 8 dereferenceable(9) %6)
  %12 = udiv i64 %11, 8
  %13 = call noundef zeroext i1 @_ZNK4llvm7details23FixedOrScalableQuantityINS_8TypeSizeEmE10isScalableEv(ptr noundef nonnull align 8 dereferenceable(9) %6)
  call void @_ZN4llvm8TypeSizeC2Emb(ptr noundef nonnull align 8 dereferenceable(9) %3, i64 noundef %12, i1 noundef zeroext %13)
  %14 = load { i64, i8 }, ptr %3, align 8
  ret { i64, i8 } %14
}

; Function Attrs: mustprogress nounwind uwtable
define dso_local noundef zeroext i1 @_ZNK4llvm24RISCVELFTargetObjectFile16isInSmallSectionEm(ptr noundef nonnull align 8 dereferenceable(1092) %0, i64 noundef %1) #0 align 2 {
  %3 = alloca ptr, align 8
  %4 = alloca i64, align 8
  store ptr %0, ptr %3, align 8
  store i64 %1, ptr %4, align 8
  %5 = load ptr, ptr %3, align 8
  %6 = load i64, ptr %4, align 8
  %7 = icmp ugt i64 %6, 0
  br i1 %7, label %8, label %14

8:                                                ; preds = %2
  %9 = load i64, ptr %4, align 8
  %10 = getelementptr inbounds nuw %"class.llvm::RISCVELFTargetObjectFile", ptr %5, i32 0, i32 9
  %11 = load i32, ptr %10, align 8
  %12 = zext i32 %11 to i64
  %13 = icmp ule i64 %9, %12
  br label %14

14:                                               ; preds = %8, %2
  %15 = phi i1 [ false, %2 ], [ %13, %8 ]
  ret i1 %15
}

; Function Attrs: mustprogress nounwind uwtable
define linkonce_odr hidden { i64, i8 } @_ZNK4llvm10DataLayout16getTypeAllocSizeEPNS_4TypeE(ptr noundef nonnull align 8 dereferenceable(512) %0, ptr noundef %1) #0 comdat align 2 {
  %3 = alloca %"class.llvm::TypeSize", align 8
  %4 = alloca ptr, align 8
  %5 = alloca ptr, align 8
  %6 = alloca %"class.llvm::TypeSize", align 8
  %7 = alloca { i64, i8 }, align 8
  %8 = alloca %"struct.llvm::Align", align 1
  %9 = alloca { i64, i8 }, align 8
  store ptr %0, ptr %4, align 8
  store ptr %1, ptr %5, align 8
  %10 = load ptr, ptr %4, align 8
  %11 = load ptr, ptr %5, align 8
  %12 = call { i64, i8 } @_ZNK4llvm10DataLayout16getTypeStoreSizeEPNS_4TypeE(ptr noundef nonnull align 8 dereferenceable(512) %10, ptr noundef %11)
  store { i64, i8 } %12, ptr %7, align 8
  call void @llvm.memcpy.p0.p0.i64(ptr align 8 %6, ptr align 8 %7, i64 9, i1 false)
  %13 = load ptr, ptr %5, align 8
  %14 = call i8 @_ZNK4llvm10DataLayout15getABITypeAlignEPNS_4TypeE(ptr noundef nonnull align 8 dereferenceable(512) %10, ptr noundef %13)
  %15 = getelementptr inbounds nuw %"struct.llvm::Align", ptr %8, i32 0, i32 0
  store i8 %14, ptr %15, align 1
  %16 = call noundef i64 @_ZNK4llvm5Align5valueEv(ptr noundef nonnull align 1 dereferenceable(1) %8)
  %17 = getelementptr inbounds nuw { i64, i8 }, ptr %6, i32 0, i32 0
  %18 = load i64, ptr %17, align 8
  %19 = getelementptr inbounds nuw { i64, i8 }, ptr %6, i32 0, i32 1
  %20 = load i8, ptr %19, align 8
  %21 = call { i64, i8 } @_ZN4llvm7alignToENS_8TypeSizeEm(i64 %18, i8 %20, i64 noundef %16)
  store { i64, i8 } %21, ptr %9, align 8
  call void @llvm.memcpy.p0.p0.i64(ptr align 8 %3, ptr align 8 %9, i64 9, i1 false)
  %22 = load { i64, i8 }, ptr %3, align 8
  ret { i64, i8 } %22
}

; Function Attrs: mustprogress nounwind uwtable
define linkonce_odr hidden noundef ptr @_ZNK4llvm5Value7getTypeEv(ptr noundef nonnull align 8 dereferenceable(24) %0) #0 comdat align 2 {
  %2 = alloca ptr, align 8
  store ptr %0, ptr %2, align 8
  %3 = load ptr, ptr %2, align 8
  %4 = getelementptr inbounds nuw %"class.llvm::Value", ptr %3, i32 0, i32 4
  %5 = load ptr, ptr %4, align 8
  ret ptr %5
}

; Function Attrs: mustprogress nounwind uwtable
define dso_local noundef zeroext i1 @_ZNK4llvm24RISCVELFTargetObjectFile24isConstantInSmallSectionERKNS_10DataLayoutEPKNS_8ConstantE(ptr noundef nonnull align 8 dereferenceable(1092) %0, ptr noundef nonnull align 8 dereferenceable(512) %1, ptr noundef %2) #0 align 2 {
  %4 = alloca ptr, align 8
  %5 = alloca ptr, align 8
  %6 = alloca ptr, align 8
  %7 = alloca %"class.llvm::TypeSize", align 8
  %8 = alloca { i64, i8 }, align 8
  store ptr %0, ptr %4, align 8
  store ptr %1, ptr %5, align 8
  store ptr %2, ptr %6, align 8
  %9 = load ptr, ptr %4, align 8
  %10 = load ptr, ptr %5, align 8
  %11 = load ptr, ptr %6, align 8
  %12 = call noundef ptr @_ZNK4llvm5Value7getTypeEv(ptr noundef nonnull align 8 dereferenceable(24) %11)
  %13 = call { i64, i8 } @_ZNK4llvm10DataLayout16getTypeAllocSizeEPNS_4TypeE(ptr noundef nonnull align 8 dereferenceable(512) %10, ptr noundef %12)
  store { i64, i8 } %13, ptr %8, align 8
  call void @llvm.memcpy.p0.p0.i64(ptr align 8 %7, ptr align 8 %8, i64 9, i1 false)
  %14 = call noundef i64 @_ZNK4llvm8TypeSizecvmEv(ptr noundef nonnull align 8 dereferenceable(9) %7)
  %15 = call noundef zeroext i1 @_ZNK4llvm24RISCVELFTargetObjectFile16isInSmallSectionEm(ptr noundef nonnull align 8 dereferenceable(1092) %9, i64 noundef %14)
  ret i1 %15
}