; Function Attrs: mustprogress nounwind uwtable
define dso_local noundef zeroext i1 @_ZNK4llvm24RISCVELFTargetObjectFile24isConstantInSmallSectionERKNS_10DataLayoutEPKNS_8ConstantE(ptr noundef nonnull readonly align 8 captures(none) dereferenceable(1092) %0, ptr noundef nonnull align 8 dereferenceable(512) %1, ptr noundef readonly captures(none) %2) local_unnamed_addr #0 align 2 {
  %4 = alloca %"class.llvm::TypeSize", align 8
  %5 = getelementptr inbounds nuw i8, ptr %2, i64 8
  %6 = load ptr, ptr %5, align 8
  %7 = tail call { i64, i8 } @_ZNK4llvm10DataLayout17getTypeSizeInBitsEPNS_4TypeE(ptr noundef nonnull align 8 dereferenceable(512) %1, ptr noundef %6)
  %.fca.0.extract.i13.i = extractvalue { i64, i8 } %7, 0
  %.fca.1.extract.i14.i = extractvalue { i64, i8 } %7, 1
  %8 = add i64 %.fca.0.extract.i13.i, 7
  %9 = and i8 %.fca.1.extract.i14.i, 1
  %10 = lshr i64 %8, 3
  %11 = tail call i8 @_ZNK4llvm10DataLayout15getABITypeAlignEPNS_4TypeE(ptr noundef nonnull align 8 dereferenceable(512) %1, ptr noundef %6) #9
  %12 = zext nneg i8 %11 to i64
  %13 = shl nuw i64 1, %12
  %14 = add nsw i64 %10, -1
  %15 = add i64 %14, %13
  %.not.i = sub i64 0, %13
  %16 = and i64 %15, %.not.i
  store i64 %16, ptr %4, align 8
  %.sroa.2.0..sroa_idx = getelementptr inbounds nuw i8, ptr %4, i64 8
  store i8 %9, ptr %.sroa.2.0..sroa_idx, align 8
  %17 = call noundef i64 @_ZNK4llvm8TypeSizecvmEv(ptr noundef nonnull align 8 dereferenceable(9) %4) #9
  %18 = getelementptr inbounds nuw i8, ptr %0, i64 1088
  %19 = load i32, ptr %18, align 8
  %.fr.i = freeze i32 %19
  %20 = zext i32 %.fr.i to i64
  %21 = add i64 %17, -1
  %22 = icmp ult i64 %21, %20
  ret i1 %22
}